; Function Attrs: nounwind uwtable
define ptr @l_Lean_RBNode_find___at_Lean_Server_FileWorker_collectSyntaxBasedSemanticTokens___spec__1(ptr noundef %0, ptr noundef %1) local_unnamed_addr #0 {
  %3 = getelementptr i8, ptr %1, i64 8
  br label %lean_string_dec_eq.exit.thread

lean_string_dec_eq.exit.thread:                   ; preds = %lean_string_dec_eq.exit.thread.backedge, %2
  %.021 = phi ptr [ %0, %2 ], [ %.021.be, %lean_string_dec_eq.exit.thread.backedge ]
  %4 = ptrtoint ptr %.021 to i64
  %5 = and i64 %4, 1
  %.not.i = icmp eq i64 %5, 0
  br i1 %.not.i, label %9, label %6

6:                                                ; preds = %lean_string_dec_eq.exit.thread
  %7 = lshr i64 %4, 1
  %8 = trunc i64 %7 to i32
  br label %lean_obj_tag.exit

9:                                                ; preds = %lean_string_dec_eq.exit.thread
  %10 = getelementptr i8, ptr %.021, i64 4
  %.val.i = load i32, ptr %10, align 4
  %11 = lshr i32 %.val.i, 24
  br label %lean_obj_tag.exit

lean_obj_tag.exit:                                ; preds = %6, %9
  %.0.i = phi i32 [ %8, %6 ], [ %11, %9 ]
  %12 = icmp eq i32 %.0.i, 0
  br i1 %12, label %.loopexit, label %13

13:                                               ; preds = %lean_obj_tag.exit
  %14 = getelementptr inbounds nuw i8, ptr %.021, i64 8
  %15 = load ptr, ptr %14, align 8, !tbaa !11
  %16 = getelementptr inbounds nuw i8, ptr %.021, i64 16
  %17 = load ptr, ptr %16, align 8, !tbaa !11
  %18 = getelementptr inbounds nuw i8, ptr %.021, i64 24
  %19 = load ptr, ptr %18, align 8, !tbaa !11
  %20 = getelementptr inbounds nuw i8, ptr %.021, i64 32
  %21 = load ptr, ptr %20, align 8, !tbaa !11
  %22 = tail call zeroext i1 @lean_string_lt(ptr noundef %1, ptr noundef %17) #7
  br i1 %22, label %lean_string_dec_eq.exit.thread.backedge, label %23

23:                                               ; preds = %13
  %24 = icmp eq ptr %1, %17
  br i1 %24, label %lean_string_dec_eq.exit.thread26, label %25

25:                                               ; preds = %23
  %.val.i.i = load i64, ptr %3, align 8, !tbaa !4
  %26 = getelementptr i8, ptr %17, i64 8
  %.val7.i.i = load i64, ptr %26, align 8, !tbaa !4
  %27 = icmp eq i64 %.val.i.i, %.val7.i.i
  br i1 %27, label %lean_string_dec_eq.exit, label %lean_string_dec_eq.exit.thread.backedge

lean_string_dec_eq.exit.thread.backedge:          ; preds = %25, %13, %lean_string_dec_eq.exit
  %.021.be = phi ptr [ %21, %lean_string_dec_eq.exit ], [ %15, %13 ], [ %21, %25 ]
  br label %lean_string_dec_eq.exit.thread

lean_string_dec_eq.exit:                          ; preds = %25
  %28 = tail call zeroext i1 @lean_string_eq_cold(ptr noundef nonnull %1, ptr noundef nonnull %17) #7
  br i1 %28, label %lean_string_dec_eq.exit.thread26, label %lean_string_dec_eq.exit.thread.backedge

lean_string_dec_eq.exit.thread26:                 ; preds = %23, %lean_string_dec_eq.exit
  %29 = ptrtoint ptr %19 to i64
  %30 = and i64 %29, 1
  %.not = icmp eq i64 %30, 0
  br i1 %.not, label %31, label %lean_inc.exit

31:                                               ; preds = %lean_string_dec_eq.exit.thread26
  %.val.i24 = load i32, ptr %19, align 4, !tbaa !8
  %32 = icmp sgt i32 %.val.i24, 0
  br i1 %32, label %33, label %35, !prof !14

33:                                               ; preds = %31
  %34 = add nuw i32 %.val.i24, 1
  store i32 %34, ptr %19, align 4, !tbaa !8
  br label %lean_inc.exit

35:                                               ; preds = %31
  %.not.i25 = icmp eq i32 %.val.i24, 0
  br i1 %.not.i25, label %lean_inc.exit, label %36

36:                                               ; preds = %35
  tail call void @lean_inc_ref_cold(ptr noundef nonnull %19) #7
  br label %lean_inc.exit

lean_inc.exit:                                    ; preds = %36, %35, %33, %lean_string_dec_eq.exit.thread26
  tail call void @lean_inc_heartbeat() #7
  %37 = tail call noalias ptr @mi_malloc_small(i64 noundef 16) #7
  %38 = icmp eq ptr %37, null
  br i1 %38, label %39, label %.thread

39:                                               ; preds = %lean_inc.exit
  tail call void @lean_internal_panic_out_of_memory() #8
  unreachable

.thread:                                          ; preds = %lean_inc.exit
  %40 = getelementptr inbounds nuw i8, ptr %37, i64 4
  store i32 1, ptr %37, align 4, !tbaa !8
  store i32 16842768, ptr %40, align 4
  %41 = getelementptr inbounds nuw i8, ptr %37, i64 8
  store ptr %19, ptr %41, align 8, !tbaa !11
  br label %.loopexit

.loopexit:                                        ; preds = %lean_obj_tag.exit, %.thread
  %.1 = phi ptr [ %37, %.thread ], [ inttoptr (i64 1 to ptr), %lean_obj_tag.exit ]
  ret ptr %.1
}